; Function Attrs: mustprogress uwtable
define dso_local void @_ZN4Json12StyledWriter23writeCommentBeforeValueERKNS_5ValueE(ptr noundef nonnull align 8 dereferenceable(105) %0, ptr noundef nonnull align 8 dereferenceable(40) %1) local_unnamed_addr #0 align 2 personality ptr @__gxx_personality_v0 {
  %3 = alloca %"class.std::__cxx11::basic_string", align 8
  %4 = tail call noundef zeroext i1 @_ZNK4Json5Value10hasCommentENS_16CommentPlacementE(ptr noundef nonnull align 8 dereferenceable(40) %1, i32 noundef 0)
  br i1 %4, label %5, label %49

5:                                                ; preds = %2
  %6 = getelementptr inbounds i8, ptr %0, i64 32
  %7 = tail call noundef nonnull align 8 dereferenceable(32) ptr @_ZNSt7__cxx1112basic_stringIcSt11char_traitsIcESaIcEEpLEc(ptr noundef nonnull align 8 dereferenceable(32) %6, i8 noundef signext 10)
  %8 = tail call noundef zeroext i1 @_ZNKSt7__cxx1112basic_stringIcSt11char_traitsIcESaIcEE5emptyEv(ptr noundef nonnull align 8 dereferenceable(32) %6) #19
  br i1 %8, label %16, label %9

9:                                                ; preds = %5
  %10 = tail call noundef i64 @_ZNKSt7__cxx1112basic_stringIcSt11char_traitsIcESaIcEE6lengthEv(ptr noundef nonnull align 8 dereferenceable(32) %6) #19
  %11 = add i64 %10, -1
  %12 = tail call noundef nonnull align 1 dereferenceable(1) ptr @_ZNSt7__cxx1112basic_stringIcSt11char_traitsIcESaIcEEixEm(ptr noundef nonnull align 8 dereferenceable(32) %6, i64 noundef %11)
  %13 = load i8, ptr %12, align 1
  switch i8 %13, label %14 [
    i8 32, label %_ZN4Json12StyledWriter11writeIndentEv.exit
    i8 10, label %16
  ]

14:                                               ; preds = %9
  %15 = tail call noundef nonnull align 8 dereferenceable(32) ptr @_ZNSt7__cxx1112basic_stringIcSt11char_traitsIcESaIcEEpLEc(ptr noundef nonnull align 8 dereferenceable(32) %6, i8 noundef signext 10)
  br label %16

16:                                               ; preds = %14, %9, %5
  %17 = getelementptr inbounds i8, ptr %0, i64 64
  %18 = tail call noundef nonnull align 8 dereferenceable(32) ptr @_ZNSt7__cxx1112basic_stringIcSt11char_traitsIcESaIcEEpLERKS4_(ptr noundef nonnull align 8 dereferenceable(32) %6, ptr noundef nonnull align 8 dereferenceable(32) %17)
  br label %_ZN4Json12StyledWriter11writeIndentEv.exit

_ZN4Json12StyledWriter11writeIndentEv.exit:       ; preds = %9, %16
  call void @_ZNK4Json5Value10getCommentB5cxx11ENS_16CommentPlacementE(ptr dead_on_unwind nonnull writable sret(%"class.std::__cxx11::basic_string") align 8 %3, ptr noundef nonnull align 8 dereferenceable(40) %1, i32 noundef 0)
  %19 = call ptr @_ZNKSt7__cxx1112basic_stringIcSt11char_traitsIcESaIcEE5beginEv(ptr noundef nonnull align 8 dereferenceable(32) %3) #19
  %20 = call ptr @_ZNKSt7__cxx1112basic_stringIcSt11char_traitsIcESaIcEE3endEv(ptr noundef nonnull align 8 dereferenceable(32) %3) #19
  %.not20 = icmp eq ptr %19, %20
  br i1 %.not20, label %._crit_edge, label %.lr.ph

.lr.ph:                                           ; preds = %_ZN4Json12StyledWriter11writeIndentEv.exit
  %21 = getelementptr inbounds i8, ptr %0, i64 64
  br label %22

22:                                               ; preds = %.lr.ph, %.critedge
  %.sroa.013.021 = phi ptr [ %19, %.lr.ph ], [ %45, %.critedge ]
  %23 = load i8, ptr %.sroa.013.021, align 1
  %24 = invoke noundef nonnull align 8 dereferenceable(32) ptr @_ZNSt7__cxx1112basic_stringIcSt11char_traitsIcESaIcEEpLEc(ptr noundef nonnull align 8 dereferenceable(32) %6, i8 noundef signext %23)
          to label %25 unwind label %.loopexit

25:                                               ; preds = %22
  %26 = load i8, ptr %.sroa.013.021, align 1
  %27 = icmp eq i8 %26, 10
  br i1 %27, label %28, label %.critedge

28:                                               ; preds = %25
  %29 = getelementptr inbounds i8, ptr %.sroa.013.021, i64 1
  %30 = call ptr @_ZNKSt7__cxx1112basic_stringIcSt11char_traitsIcESaIcEE3endEv(ptr noundef nonnull align 8 dereferenceable(32) %3) #19
  %.not19 = icmp eq ptr %29, %30
  br i1 %.not19, label %.critedge, label %31

31:                                               ; preds = %28
  %32 = load i8, ptr %29, align 1
  %33 = icmp eq i8 %32, 47
  br i1 %33, label %34, label %.critedge

34:                                               ; preds = %31
  %35 = call noundef zeroext i1 @_ZNKSt7__cxx1112basic_stringIcSt11char_traitsIcESaIcEE5emptyEv(ptr noundef nonnull align 8 dereferenceable(32) %6) #19
  br i1 %35, label %.noexc7, label %36

36:                                               ; preds = %34
  %37 = call noundef i64 @_ZNKSt7__cxx1112basic_stringIcSt11char_traitsIcESaIcEE6lengthEv(ptr noundef nonnull align 8 dereferenceable(32) %6) #19
  %38 = add i64 %37, -1
  %39 = invoke noundef nonnull align 1 dereferenceable(1) ptr @_ZNSt7__cxx1112basic_stringIcSt11char_traitsIcESaIcEEixEm(ptr noundef nonnull align 8 dereferenceable(32) %6, i64 noundef %38)
          to label %.noexc unwind label %.loopexit

.noexc:                                           ; preds = %36
  %40 = load i8, ptr %39, align 1
  switch i8 %40, label %41 [
    i8 32, label %.critedge
    i8 10, label %.noexc7
  ]

41:                                               ; preds = %.noexc
  %42 = invoke noundef nonnull align 8 dereferenceable(32) ptr @_ZNSt7__cxx1112basic_stringIcSt11char_traitsIcESaIcEEpLEc(ptr noundef nonnull align 8 dereferenceable(32) %6, i8 noundef signext 10)
          to label %.noexc7 unwind label %.loopexit

.noexc7:                                          ; preds = %41, %.noexc, %34
  %43 = invoke noundef nonnull align 8 dereferenceable(32) ptr @_ZNSt7__cxx1112basic_stringIcSt11char_traitsIcESaIcEEpLERKS4_(ptr noundef nonnull align 8 dereferenceable(32) %6, ptr noundef nonnull align 8 dereferenceable(32) %21)
          to label %.critedge unwind label %.loopexit

.loopexit:                                        ; preds = %22, %36, %41, %.noexc7
  %lpad.loopexit = landingpad { ptr, i32 }
          cleanup
  br label %44

.loopexit.split-lp:                               ; preds = %._crit_edge
  %lpad.loopexit.split-lp = landingpad { ptr, i32 }
          cleanup
  br label %44

44:                                               ; preds = %.loopexit.split-lp, %.loopexit
  %lpad.phi = phi { ptr, i32 } [ %lpad.loopexit, %.loopexit ], [ %lpad.loopexit.split-lp, %.loopexit.split-lp ]
  call void @_ZNSt7__cxx1112basic_stringIcSt11char_traitsIcESaIcEED1Ev(ptr noundef nonnull align 8 dereferenceable(32) %3) #19
  resume { ptr, i32 } %lpad.phi

.critedge:                                        ; preds = %.noexc, %.noexc7, %25, %28, %31
  %45 = getelementptr inbounds i8, ptr %.sroa.013.021, i64 1
  %46 = call ptr @_ZNKSt7__cxx1112basic_stringIcSt11char_traitsIcESaIcEE3endEv(ptr noundef nonnull align 8 dereferenceable(32) %3) #19
  %.not = icmp eq ptr %45, %46
  br i1 %.not, label %._crit_edge, label %22, !llvm.loop !14

._crit_edge:                                      ; preds = %.critedge, %_ZN4Json12StyledWriter11writeIndentEv.exit
  %47 = invoke noundef nonnull align 8 dereferenceable(32) ptr @_ZNSt7__cxx1112basic_stringIcSt11char_traitsIcESaIcEEpLEc(ptr noundef nonnull align 8 dereferenceable(32) %6, i8 noundef signext 10)
          to label %48 unwind label %.loopexit.split-lp

48:                                               ; preds = %._crit_edge
  call void @_ZNSt7__cxx1112basic_stringIcSt11char_traitsIcESaIcEED1Ev(ptr noundef nonnull align 8 dereferenceable(32) %3) #19
  br label %49

49:                                               ; preds = %2, %48
  ret void
}